; ModuleID = '12/969.c'
source_filename = "12/969.c"
target datalayout = "e-m:e-p270:32:32-p271:32:32-p272:64:64-i64:64-f80:128-n8:16:32:64-S128"
target triple = "x86_64-pc-linux-gnu"

@.str = private unnamed_addr constant [3 x i8] c"%d\00", align 1
@.str.1 = private unnamed_addr constant [4 x i8] c"%d\0A\00", align 1

; Function Attrs: noinline nounwind uwtable
define dso_local i32 @main(i32 %0, i8** %1) #0 {
  %3 = alloca i32, align 4
  %4 = alloca i32, align 4
  %5 = alloca i8**, align 8
  %6 = alloca [100 x [15 x i32]], align 16
  %7 = alloca i32, align 4
  %8 = alloca i32, align 4
  %9 = alloca i32, align 4
  %10 = alloca i32, align 4
  %11 = alloca i32, align 4
  %12 = alloca i32, align 4
  store i32 0, i32* %3, align 4
  store i32 %0, i32* %4, align 4
  store i8** %1, i8*** %5, align 8
  store i32 0, i32* %7, align 4
  store i32 0, i32* %8, align 4
  store i32 10, i32* %9, align 4
  store i32 0, i32* %10, align 4
  store i32 0, i32* %12, align 4
  store i32 0, i32* %7, align 4
  br label %13

13:                                               ; preds = %45, %2
  %14 = load i32, i32* %7, align 4
  %15 = icmp slt i32 %14, 100
  br i1 %15, label %16, label %48

16:                                               ; preds = %13
  %17 = load i32, i32* %9, align 4
  %18 = icmp eq i32 %17, -1
  br i1 %18, label %19, label %20

19:                                               ; preds = %16
  br label %48

20:                                               ; preds = %16
  store i32 0, i32* %8, align 4
  br label %21

21:                                               ; preds = %41, %20
  %22 = load i32, i32* %8, align 4
  %23 = icmp slt i32 %22, 16
  br i1 %23, label %24, label %44

24:                                               ; preds = %21
  %25 = call i32 (i8*, ...) @__isoc99_scanf(i8* getelementptr inbounds ([3 x i8], [3 x i8]* @.str, i64 0, i64 0), i32* %9)
  %26 = load i32, i32* %9, align 4
  %27 = icmp eq i32 %26, -1
  br i1 %27, label %28, label %29

28:                                               ; preds = %24
  br label %44

29:                                               ; preds = %24
  %30 = load i32, i32* %9, align 4
  %31 = icmp eq i32 %30, 0
  br i1 %31, label %32, label %33

32:                                               ; preds = %29
  br label %44

33:                                               ; preds = %29
  %34 = load i32, i32* %9, align 4
  %35 = load i32, i32* %7, align 4
  %36 = sext i32 %35 to i64
  %37 = getelementptr inbounds [100 x [15 x i32]], [100 x [15 x i32]]* %6, i64 0, i64 %36
  %38 = load i32, i32* %8, align 4
  %39 = sext i32 %38 to i64
  %40 = getelementptr inbounds [15 x i32], [15 x i32]* %37, i64 0, i64 %39
  store i32 %34, i32* %40, align 4
  br label %41

41:                                               ; preds = %33
  %42 = load i32, i32* %8, align 4
  %43 = add nsw i32 %42, 1
  store i32 %43, i32* %8, align 4
  br label %21

44:                                               ; preds = %32, %28, %21
  br label %45

45:                                               ; preds = %44
  %46 = load i32, i32* %7, align 4
  %47 = add nsw i32 %46, 1
  store i32 %47, i32* %7, align 4
  br label %13

48:                                               ; preds = %19, %13
  %49 = load i32, i32* %7, align 4
  store i32 %49, i32* %10, align 4
  store i32 0, i32* %7, align 4
  br label %50

50:                                               ; preds = %119, %48
  %51 = load i32, i32* %7, align 4
  %52 = load i32, i32* %10, align 4
  %53 = sub nsw i32 %52, 1
  %54 = icmp slt i32 %51, %53
  br i1 %54, label %55, label %122

55:                                               ; preds = %50
  store i32 0, i32* %8, align 4
  br label %56

56:                                               ; preds = %113, %55
  %57 = load i32, i32* %8, align 4
  %58 = icmp slt i32 %57, 15
  br i1 %58, label %59, label %116

59:                                               ; preds = %56
  %60 = load i32, i32* %8, align 4
  %61 = add nsw i32 %60, 1
  store i32 %61, i32* %11, align 4
  br label %62

62:                                               ; preds = %109, %59
  %63 = load i32, i32* %11, align 4
  %64 = icmp slt i32 %63, 15
  br i1 %64, label %65, label %112

65:                                               ; preds = %62
  %66 = load i32, i32* %7, align 4
  %67 = sext i32 %66 to i64
  %68 = getelementptr inbounds [100 x [15 x i32]], [100 x [15 x i32]]* %6, i64 0, i64 %67
  %69 = load i32, i32* %8, align 4
  %70 = sext i32 %69 to i64
  %71 = getelementptr inbounds [15 x i32], [15 x i32]* %68, i64 0, i64 %70
  %72 = load i32, i32* %71, align 4
  %73 = sitofp i32 %72 to double
  %74 = fmul double %73, 1.000000e+00
  %75 = load i32, i32* %7, align 4
  %76 = sext i32 %75 to i64
  %77 = getelementptr inbounds [100 x [15 x i32]], [100 x [15 x i32]]* %6, i64 0, i64 %76
  %78 = load i32, i32* %11, align 4
  %79 = sext i32 %78 to i64
  %80 = getelementptr inbounds [15 x i32], [15 x i32]* %77, i64 0, i64 %79
  %81 = load i32, i32* %80, align 4
  %82 = sitofp i32 %81 to double
  %83 = fdiv double %74, %82
  %84 = fcmp oeq double %83, 2.000000e+00
  br i1 %84, label %105, label %85

85:                                               ; preds = %65
  %86 = load i32, i32* %7, align 4
  %87 = sext i32 %86 to i64
  %88 = getelementptr inbounds [100 x [15 x i32]], [100 x [15 x i32]]* %6, i64 0, i64 %87
  %89 = load i32, i32* %11, align 4
  %90 = sext i32 %89 to i64
  %91 = getelementptr inbounds [15 x i32], [15 x i32]* %88, i64 0, i64 %90
  %92 = load i32, i32* %91, align 4
  %93 = sitofp i32 %92 to double
  %94 = fmul double %93, 1.000000e+00
  %95 = load i32, i32* %7, align 4
  %96 = sext i32 %95 to i64
  %97 = getelementptr inbounds [100 x [15 x i32]], [100 x [15 x i32]]* %6, i64 0, i64 %96
  %98 = load i32, i32* %8, align 4
  %99 = sext i32 %98 to i64
  %100 = getelementptr inbounds [15 x i32], [15 x i32]* %97, i64 0, i64 %99
  %101 = load i32, i32* %100, align 4
  %102 = sitofp i32 %101 to double
  %103 = fdiv double %94, %102
  %104 = fcmp oeq double %103, 2.000000e+00
  br i1 %104, label %105, label %108

105:                                              ; preds = %85, %65
  %106 = load i32, i32* %12, align 4
  %107 = add nsw i32 %106, 1
  store i32 %107, i32* %12, align 4
  br label %108

108:                                              ; preds = %105, %85
  br label %109

109:                                              ; preds = %108
  %110 = load i32, i32* %11, align 4
  %111 = add nsw i32 %110, 1
  store i32 %111, i32* %11, align 4
  br label %62

112:                                              ; preds = %62
  br label %113

113:                                              ; preds = %112
  %114 = load i32, i32* %8, align 4
  %115 = add nsw i32 %114, 1
  store i32 %115, i32* %8, align 4
  br label %56

116:                                              ; preds = %56
  %117 = load i32, i32* %12, align 4
  %118 = call i32 (i8*, ...) @printf(i8* getelementptr inbounds ([4 x i8], [4 x i8]* @.str.1, i64 0, i64 0), i32 %117)
  store i32 0, i32* %12, align 4
  br label %119

119:                                              ; preds = %116
  %120 = load i32, i32* %7, align 4
  %121 = add nsw i32 %120, 1
  store i32 %121, i32* %7, align 4
  br label %50

122:                                              ; preds = %50
  ret i32 0
}

declare dso_local i32 @__isoc99_scanf(i8*, ...) #1

declare dso_local i32 @printf(i8*, ...) #1


!llvm.module.flags = !{!0}
!llvm.ident = !{!1}

!0 = !{i32 1, !"wchar_size", i32 4}
!1 = !{!"clang version 10.0.0-4ubuntu1 "}
